; Function Attrs: mustprogress nofree norecurse nosync nounwind willreturn memory(argmem: readwrite) uwtable
define internal noundef i32 @_ZZL21ShowDemoWindowWidgetsP19ImGuiDemoWindowDataEN11TextFilters16FilterCasingSwapEP26ImGuiInputTextCallbackData(ptr noundef captures(none) %0) #14 align 2 {
  %2 = getelementptr inbounds nuw i8, ptr %0, i64 24
  %3 = load i16, ptr %2, align 8, !tbaa !452
  %4 = add i16 %3, -97
  %or.cond = icmp ult i16 %4, 26
  br i1 %or.cond, label %5, label %7

5:                                                ; preds = %1
  %6 = add nsw i16 %3, -32
  br label %.sink.split

7:                                                ; preds = %1
  %8 = add i16 %3, -65
  %or.cond7 = icmp ult i16 %8, 26
  br i1 %or.cond7, label %9, label %10

9:                                                ; preds = %7
  %narrow = or disjoint i16 %3, 32
  br label %.sink.split

.sink.split:                                      ; preds = %5, %9
  %narrow.sink = phi i16 [ %narrow, %9 ], [ %6, %5 ]
  store i16 %narrow.sink, ptr %2, align 8, !tbaa !452
  br label %10

10:                                               ; preds = %.sink.split, %7
  ret i32 0
}